target datalayout = "e-m:e-p270:32:32-p271:32:32-p272:64:64-i64:64-i128:128-f80:128-n8:16:32:64-S128"
target triple = "x86_64-unknown-linux-gnu"

%class.anon = type { ptr, ptr }

; Function Attrs: mustprogress uwtable
define internal noundef zeroext i1 @"_ZZNK8facebook5velox6memory15MemoryReclaimer16reclaimableBytesERKNS1_10MemoryPoolERmENK3$_0clEPS3_"(ptr noundef nonnull align 8 dereferenceable(16) %this, ptr noundef %pool) #0 align 2 {
entry:
  %this.addr = alloca ptr, align 8
  %pool.addr = alloca ptr, align 8
  %poolReclaimableBytes = alloca i64, align 8
  store ptr %this, ptr %this.addr, align 8
  store ptr %pool, ptr %pool.addr, align 8
  %this1 = load ptr, ptr %this.addr, align 8
  store i64 0, ptr %poolReclaimableBytes, align 8
  %0 = load ptr, ptr %pool.addr, align 8
  %vtable = load ptr, ptr %0, align 8
  %vfn = getelementptr inbounds ptr, ptr %vtable, i64 41
  %1 = load ptr, ptr %vfn, align 8
  %call = call noundef zeroext i1 %1(ptr noundef nonnull align 8 dereferenceable(168) %0, ptr noundef nonnull align 8 dereferenceable(8) %poolReclaimableBytes)
  %conv = zext i1 %call to i32
  %2 = getelementptr inbounds %class.anon, ptr %this1, i32 0, i32 0
  %3 = load ptr, ptr %2, align 8
  %4 = load i8, ptr %3, align 1
  %tobool = trunc i8 %4 to i1
  %conv2 = zext i1 %tobool to i32
  %or = or i32 %conv2, %conv
  %tobool3 = icmp ne i32 %or, 0
  %frombool = zext i1 %tobool3 to i8
  store i8 %frombool, ptr %3, align 1
  %5 = load i64, ptr %poolReclaimableBytes, align 8
  %6 = getelementptr inbounds %class.anon, ptr %this1, i32 0, i32 1
  %7 = load ptr, ptr %6, align 8
  %8 = load i64, ptr %7, align 8
  %add = add i64 %8, %5
  store i64 %add, ptr %7, align 8
  ret i1 true
}

; Function Attrs: mustprogress nounwind uwtable
define linkonce_odr noundef ptr @_ZNKSt9_Any_data9_M_accessEv(ptr noundef nonnull align 8 dereferenceable(16) %this) #2 comdat align 2 {
entry:
  %this.addr = alloca ptr, align 8
  store ptr %this, ptr %this.addr, align 8
  %this1 = load ptr, ptr %this.addr, align 8
  %arrayidx = getelementptr inbounds [16 x i8], ptr %this1, i64 0, i64 0
  ret ptr %arrayidx
}

; Function Attrs: mustprogress uwtable
define internal noundef zeroext i1 @"_ZSt13__invoke_implIbRZNK8facebook5velox6memory15MemoryReclaimer16reclaimableBytesERKNS2_10MemoryPoolERmE3$_0JPS4_EET_St14__invoke_otherOT0_DpOT1_"(ptr noundef nonnull align 8 dereferenceable(16) %__f, ptr noundef nonnull align 8 dereferenceable(8) %__args) #0 {
entry:
  %__f.addr = alloca ptr, align 8
  %__args.addr = alloca ptr, align 8
  store ptr %__f, ptr %__f.addr, align 8
  store ptr %__args, ptr %__args.addr, align 8
  %0 = load ptr, ptr %__f.addr, align 8
  %1 = load ptr, ptr %__args.addr, align 8
  %2 = load ptr, ptr %1, align 8
  %call = call noundef zeroext i1 @"_ZZNK8facebook5velox6memory15MemoryReclaimer16reclaimableBytesERKNS1_10MemoryPoolERmENK3$_0clEPS3_"(ptr noundef nonnull align 8 dereferenceable(16) %0, ptr noundef %2)
  ret i1 %call
}

; Function Attrs: mustprogress nounwind uwtable
define internal noundef nonnull align 8 dereferenceable(16) ptr @"_ZNKSt9_Any_data9_M_accessIZNK8facebook5velox6memory15MemoryReclaimer16reclaimableBytesERKNS3_10MemoryPoolERmE3$_0EERKT_v"(ptr noundef nonnull align 8 dereferenceable(16) %this) #2 align 2 {
entry:
  %this.addr = alloca ptr, align 8
  store ptr %this, ptr %this.addr, align 8
  %this1 = load ptr, ptr %this.addr, align 8
  %call = call noundef ptr @_ZNKSt9_Any_data9_M_accessEv(ptr noundef nonnull align 8 dereferenceable(16) %this1) #9
  ret ptr %call
}

; Function Attrs: mustprogress uwtable
define internal noundef zeroext i1 @"_ZSt10__invoke_rIbRZNK8facebook5velox6memory15MemoryReclaimer16reclaimableBytesERKNS2_10MemoryPoolERmE3$_0JPS4_EENSt9enable_ifIX16is_invocable_r_vIT_T0_DpT1_EESC_E4typeEOSD_DpOSE_"(ptr noundef nonnull align 8 dereferenceable(16) %__fn, ptr noundef nonnull align 8 dereferenceable(8) %__args) #0 {
entry:
  %__fn.addr = alloca ptr, align 8
  %__args.addr = alloca ptr, align 8
  store ptr %__fn, ptr %__fn.addr, align 8
  store ptr %__args, ptr %__args.addr, align 8
  %0 = load ptr, ptr %__fn.addr, align 8
  %1 = load ptr, ptr %__args.addr, align 8
  %call = call noundef zeroext i1 @"_ZSt13__invoke_implIbRZNK8facebook5velox6memory15MemoryReclaimer16reclaimableBytesERKNS2_10MemoryPoolERmE3$_0JPS4_EET_St14__invoke_otherOT0_DpOT1_"(ptr noundef nonnull align 8 dereferenceable(16) %0, ptr noundef nonnull align 8 dereferenceable(8) %1)
  ret i1 %call
}

; Function Attrs: mustprogress nounwind uwtable
define internal noundef ptr @"_ZNSt14_Function_base13_Base_managerIZNK8facebook5velox6memory15MemoryReclaimer16reclaimableBytesERKNS3_10MemoryPoolERmE3$_0E14_M_get_pointerERKSt9_Any_data"(ptr noundef nonnull align 8 dereferenceable(16) %__source) #2 align 2 {
entry:
  %__source.addr = alloca ptr, align 8
  %__f = alloca ptr, align 8
  store ptr %__source, ptr %__source.addr, align 8
  %0 = load ptr, ptr %__source.addr, align 8
  %call = call noundef nonnull align 8 dereferenceable(16) ptr @"_ZNKSt9_Any_data9_M_accessIZNK8facebook5velox6memory15MemoryReclaimer16reclaimableBytesERKNS3_10MemoryPoolERmE3$_0EERKT_v"(ptr noundef nonnull align 8 dereferenceable(16) %0) #9
  store ptr %call, ptr %__f, align 8
  %1 = load ptr, ptr %__f, align 8
  ret ptr %1
}

; Function Attrs: mustprogress uwtable
define internal noundef zeroext i1 @"_ZNSt17_Function_handlerIFbPN8facebook5velox6memory10MemoryPoolEEZNKS2_15MemoryReclaimer16reclaimableBytesERKS3_RmE3$_0E9_M_invokeERKSt9_Any_dataOS4_"(ptr noundef nonnull align 8 dereferenceable(16) %__functor, ptr noundef nonnull align 8 dereferenceable(8) %__args) #0 align 2 {
entry:
  %__functor.addr = alloca ptr, align 8
  %__args.addr = alloca ptr, align 8
  store ptr %__functor, ptr %__functor.addr, align 8
  store ptr %__args, ptr %__args.addr, align 8
  %0 = load ptr, ptr %__functor.addr, align 8
  %call = call noundef ptr @"_ZNSt14_Function_base13_Base_managerIZNK8facebook5velox6memory15MemoryReclaimer16reclaimableBytesERKNS3_10MemoryPoolERmE3$_0E14_M_get_pointerERKSt9_Any_data"(ptr noundef nonnull align 8 dereferenceable(16) %0) #9
  %1 = load ptr, ptr %__args.addr, align 8
  %call1 = call noundef zeroext i1 @"_ZSt10__invoke_rIbRZNK8facebook5velox6memory15MemoryReclaimer16reclaimableBytesERKNS2_10MemoryPoolERmE3$_0JPS4_EENSt9enable_ifIX16is_invocable_r_vIT_T0_DpT1_EESC_E4typeEOSD_DpOSE_"(ptr noundef nonnull align 8 dereferenceable(16) %call, ptr noundef nonnull align 8 dereferenceable(8) %1)
  ret i1 %call1
}