; Function Attrs: mustprogress uwtable
define internal noundef zeroext i1 @"_ZNSt17_Function_handlerIFbPN8facebook5velox6memory10MemoryPoolEEZNKS2_15MemoryReclaimer16reclaimableBytesERKS3_RmE3$_0E9_M_invokeERKSt9_Any_dataOS4_"(ptr nocapture noundef nonnull readonly align 8 dereferenceable(16) %__functor, ptr nocapture noundef nonnull readonly align 8 dereferenceable(8) %__args) #0 align 2 {
entry:
  %poolReclaimableBytes.i.i.i = alloca i64, align 8
  %__args.val = load ptr, ptr %__args, align 8
  call void @llvm.lifetime.start.p0(i64 8, ptr nonnull %poolReclaimableBytes.i.i.i)
  store i64 0, ptr %poolReclaimableBytes.i.i.i, align 8
  %vtable.i.i.i = load ptr, ptr %__args.val, align 8
  %vfn.i.i.i = getelementptr inbounds i8, ptr %vtable.i.i.i, i64 328
  %0 = load ptr, ptr %vfn.i.i.i, align 8
  %call.i.i.i = call noundef zeroext i1 %0(ptr noundef nonnull align 8 dereferenceable(168) %__args.val, ptr noundef nonnull align 8 dereferenceable(8) %poolReclaimableBytes.i.i.i)
  %1 = load ptr, ptr %__functor, align 8
  %2 = load i8, ptr %1, align 1
  %3 = and i8 %2, 1
  %4 = zext i1 %call.i.i.i to i8
  %5 = or i8 %3, %4
  store i8 %5, ptr %1, align 1
  %6 = load i64, ptr %poolReclaimableBytes.i.i.i, align 8
  %7 = getelementptr inbounds i8, ptr %__functor, i64 8
  %8 = load ptr, ptr %7, align 8
  %9 = load i64, ptr %8, align 8
  %add.i.i.i = add i64 %9, %6
  store i64 %add.i.i.i, ptr %8, align 8
  call void @llvm.lifetime.end.p0(i64 8, ptr nonnull %poolReclaimableBytes.i.i.i)
  ret i1 true
}